target datalayout = "e-m:e-p270:32:32-p271:32:32-p272:64:64-i64:64-i128:128-f80:128-n8:16:32:64-S128"
target triple = "x86_64-pc-linux-gnu"

%struct._GPtrArray = type { ptr, i32 }

@extra_hosts_files = internal global ptr null, align 8

; Function Attrs: null_pointer_is_valid sspstrong uwtable
define zeroext i1 @add_hosts_file(ptr noundef %0) #3 {
  %2 = alloca i1, align 1
  %3 = alloca ptr, align 8
  %4 = alloca i8, align 1
  %5 = alloca i32, align 4
  %6 = alloca i32, align 4
  store ptr %0, ptr %3, align 8
  call void @llvm.lifetime.start.p0(i64 1, ptr %4) #16
  store i8 0, ptr %4, align 1
  call void @llvm.lifetime.start.p0(i64 4, ptr %5) #16
  %7 = load ptr, ptr %3, align 8
  %8 = icmp ne ptr %7, null
  br i1 %8, label %10, label %9

9:                                                ; preds = %1
  store i1 false, ptr %2, align 1
  store i32 1, ptr %6, align 4
  br label %49

10:                                               ; preds = %1
  %11 = load ptr, ptr @extra_hosts_files, align 8
  %12 = icmp ne ptr %11, null
  br i1 %12, label %15, label %13

13:                                               ; preds = %10
  %14 = call ptr @g_ptr_array_new()
  store ptr %14, ptr @extra_hosts_files, align 8
  br label %15

15:                                               ; preds = %13, %10
  store i32 0, ptr %5, align 4
  br label %16

16:                                               ; preds = %35, %15
  %17 = load i32, ptr %5, align 4
  %18 = load ptr, ptr @extra_hosts_files, align 8
  %19 = getelementptr inbounds nuw %struct._GPtrArray, ptr %18, i32 0, i32 1
  %20 = load i32, ptr %19, align 8
  %21 = icmp ult i32 %17, %20
  br i1 %21, label %22, label %38

22:                                               ; preds = %16
  %23 = load ptr, ptr %3, align 8
  %24 = load ptr, ptr @extra_hosts_files, align 8
  %25 = getelementptr inbounds nuw %struct._GPtrArray, ptr %24, i32 0, i32 0
  %26 = load ptr, ptr %25, align 8
  %27 = load i32, ptr %5, align 4
  %28 = zext i32 %27 to i64
  %29 = getelementptr ptr, ptr %26, i64 %28
  %30 = load ptr, ptr %29, align 8
  %31 = call i32 @strcmp(ptr noundef %23, ptr noundef %30) #17
  %32 = icmp eq i32 %31, 0
  br i1 %32, label %33, label %34

33:                                               ; preds = %22
  store i8 1, ptr %4, align 1
  br label %34

34:                                               ; preds = %33, %22
  br label %35

35:                                               ; preds = %34
  %36 = load i32, ptr %5, align 4
  %37 = add i32 %36, 1
  store i32 %37, ptr %5, align 4
  br label %16, !llvm.loop !16

38:                                               ; preds = %16
  %39 = load i8, ptr %4, align 1, !range !8, !noundef !9
  %40 = trunc i8 %39 to i1
  br i1 %40, label %48, label %41

41:                                               ; preds = %38
  %42 = load ptr, ptr @extra_hosts_files, align 8
  %43 = call ptr @wmem_epan_scope()
  %44 = load ptr, ptr %3, align 8
  %45 = call noalias ptr @wmem_strdup(ptr noundef %43, ptr noundef %44)
  call void @g_ptr_array_add(ptr noundef %42, ptr noundef %45)
  %46 = load ptr, ptr %3, align 8
  %47 = call zeroext i1 @read_hosts_file(ptr noundef %46, i1 noundef zeroext false)
  store i1 %47, ptr %2, align 1
  store i32 1, ptr %6, align 4
  br label %49

48:                                               ; preds = %38
  store i1 true, ptr %2, align 1
  store i32 1, ptr %6, align 4
  br label %49

49:                                               ; preds = %48, %41, %9
  call void @llvm.lifetime.end.p0(i64 4, ptr %5) #16
  call void @llvm.lifetime.end.p0(i64 1, ptr %4) #16
  %50 = load i1, ptr %2, align 1
  ret i1 %50
}