; Function Attrs: null_pointer_is_valid sspstrong uwtable
define noundef zeroext i1 @add_hosts_file(ptr noundef %0) local_unnamed_addr #3 {
  %.not = icmp eq ptr %0, null
  br i1 %.not, label %19, label %2

2:                                                ; preds = %1
  %3 = load ptr, ptr @extra_hosts_files, align 8
  %.not11 = icmp eq ptr %3, null
  br i1 %.not11, label %4, label %6

4:                                                ; preds = %2
  %5 = tail call ptr @g_ptr_array_new()
  store ptr %5, ptr @extra_hosts_files, align 8
  br label %6

6:                                                ; preds = %4, %2
  %7 = phi ptr [ %5, %4 ], [ %3, %2 ]
  %8 = getelementptr inbounds nuw i8, ptr %7, i64 8
  %9 = load i32, ptr %8, align 8
  %.not15 = icmp eq i32 %9, 0
  br i1 %.not15, label %._crit_edge.thread, label %.lr.ph

.lr.ph:                                           ; preds = %6
  %10 = load ptr, ptr %7, align 8
  %wide.trip.count = zext i32 %9 to i64
  br label %11

11:                                               ; preds = %.lr.ph, %11
  %indvars.iv = phi i64 [ 0, %.lr.ph ], [ %indvars.iv.next, %11 ]
  %.0812 = phi i1 [ false, %.lr.ph ], [ %spec.select, %11 ]
  %12 = getelementptr ptr, ptr %10, i64 %indvars.iv
  %13 = load ptr, ptr %12, align 8
  %14 = tail call i32 @strcmp(ptr noundef nonnull dereferenceable(1) %0, ptr noundef %13) #28
  %15 = icmp eq i32 %14, 0
  %spec.select = select i1 %15, i1 true, i1 %.0812
  %indvars.iv.next = add nuw nsw i64 %indvars.iv, 1
  %exitcond.not = icmp eq i64 %indvars.iv.next, %wide.trip.count
  br i1 %exitcond.not, label %._crit_edge, label %11, !llvm.loop !14

._crit_edge:                                      ; preds = %11
  br i1 %spec.select, label %19, label %._crit_edge.thread

._crit_edge.thread:                               ; preds = %6, %._crit_edge
  %16 = tail call ptr @wmem_epan_scope()
  %17 = tail call noalias ptr @wmem_strdup(ptr noundef %16, ptr noundef nonnull %0)
  tail call void @g_ptr_array_add(ptr noundef %7, ptr noundef %17)
  %18 = tail call fastcc zeroext i1 @read_hosts_file(ptr noundef nonnull %0, i1 noundef zeroext false)
  br label %19

19:                                               ; preds = %._crit_edge, %1, %._crit_edge.thread
  %.09 = phi i1 [ %18, %._crit_edge.thread ], [ false, %1 ], [ true, %._crit_edge ]
  ret i1 %.09
}